(lp1
(S'pwm_limits'
p2
(I0
I0
I8192
I0
I8192
ttp3
a(g2
(I1
I0
I8192
I0
I8192
ttp4
a(g2
(I2
I0
I8192
I0
I8192
ttp5
a(g2
(I2
I0
I8192
I0
I8192
ttp6
a(S'adc_limits'
p7
(I0
I100
I65435
ttp8
a(g7
(I1
I100
I65435
ttp9
a(g7
(I2
I100
I65435
ttp10
a(S'pid_config'
p11
(I0
F2
F1
F0
I-8192
I8192
ttp12
a(g11
(I1
F2
F1
F0
I-8192
I8192
ttp13
a(g11
(I2
F2
F1
F0
I-8192
I8192
ttp14
a.