(lp1
(S'pwm_limits'
p2
(I0
I1638
I8192
I1638
I8192
ttp3
a(g2
(I1
I1638
I8192
I1638
I8192
ttp4
a(g2
(I2
I1638
I8192
I1638
I8192
ttp5
a(S'adc_limits'
p6
(I0
I4248
I45002
ttp7
a(g6
(I1
I2246
I61017
ttp8
a(g6
(I2
I7879
I58321
ttp9
a(S'pid_config'
p10
(I0
F1
F0
F0
I-8192
I8192
ttp11
a(g10
(I1
F2
F0.10000000000000001
F0
I-8192
I8192
ttp12
a(g10
(I2
F1
F0.10000000000000001
F0
I-8192
I8192
ttp13
a(S'dither'
p14
(I2500
I250
ttp15
a(g14
(I2500
I250
ttp16
a(g14
(I2500
I250
ttp17
a(S'calf_scale'
p18
(F4.2698401e-05
F0.64644945632799999
ttp19
a.